; ModuleID = '20/619.c'
source_filename = "20/619.c"
target datalayout = "e-m:e-p270:32:32-p271:32:32-p272:64:64-i64:64-f80:128-n8:16:32:64-S128"
target triple = "x86_64-pc-linux-gnu"

@.str = private unnamed_addr constant [5 x i8] c"%s%s\00", align 1
@.str.1 = private unnamed_addr constant [1 x i8] zeroinitializer, align 1
@.str.2 = private unnamed_addr constant [4 x i8] c"%s\0A\00", align 1

; Function Attrs: noinline nounwind uwtable
define dso_local i32 @main() #0 {
  %1 = alloca i32, align 4
  %2 = alloca i32, align 4
  %3 = alloca i32, align 4
  %4 = alloca i32, align 4
  %5 = alloca [20 x i8], align 16
  %6 = alloca [4 x i8], align 1
  %7 = alloca [20 x i8], align 16
  %8 = alloca i8*, align 8
  %9 = alloca i8*, align 8
  store i32 0, i32* %1, align 4
  %10 = getelementptr inbounds [20 x i8], [20 x i8]* %5, i64 0, i64 0
  store i8* %10, i8** %8, align 8
  %11 = getelementptr inbounds [4 x i8], [4 x i8]* %6, i64 0, i64 0
  store i8* %11, i8** %9, align 8
  br label %12

12:                                               ; preds = %43, %0
  %13 = getelementptr inbounds [20 x i8], [20 x i8]* %5, i64 0, i64 0
  %14 = getelementptr inbounds [4 x i8], [4 x i8]* %6, i64 0, i64 0
  %15 = call i32 (i8*, ...) @__isoc99_scanf(i8* getelementptr inbounds ([5 x i8], [5 x i8]* @.str, i64 0, i64 0), i8* %13, i8* %14)
  %16 = icmp ne i32 %15, -1
  br i1 %16, label %17, label %64

17:                                               ; preds = %12
  store i32 0, i32* %2, align 4
  store i32 1, i32* %3, align 4
  br label %18

18:                                               ; preds = %40, %17
  %19 = load i32, i32* %3, align 4
  %20 = sext i32 %19 to i64
  %21 = getelementptr inbounds [20 x i8], [20 x i8]* %5, i64 0, i64 %20
  %22 = load i8, i8* %21, align 1
  %23 = icmp ne i8 %22, 0
  br i1 %23, label %24, label %43

24:                                               ; preds = %18
  %25 = load i32, i32* %3, align 4
  %26 = sext i32 %25 to i64
  %27 = getelementptr inbounds [20 x i8], [20 x i8]* %5, i64 0, i64 %26
  %28 = load i8, i8* %27, align 1
  %29 = sext i8 %28 to i32
  %30 = load i32, i32* %2, align 4
  %31 = icmp sgt i32 %29, %30
  br i1 %31, label %32, label %39

32:                                               ; preds = %24
  %33 = load i32, i32* %3, align 4
  %34 = sext i32 %33 to i64
  %35 = getelementptr inbounds [20 x i8], [20 x i8]* %5, i64 0, i64 %34
  %36 = load i8, i8* %35, align 1
  %37 = sext i8 %36 to i32
  store i32 %37, i32* %2, align 4
  %38 = load i32, i32* %3, align 4
  store i32 %38, i32* %4, align 4
  br label %39

39:                                               ; preds = %32, %24
  br label %40

40:                                               ; preds = %39
  %41 = load i32, i32* %3, align 4
  %42 = add nsw i32 %41, 1
  store i32 %42, i32* %3, align 4
  br label %18

43:                                               ; preds = %18
  %44 = getelementptr inbounds [20 x i8], [20 x i8]* %7, i64 0, i64 0
  %45 = call i8* @strcpy(i8* %44, i8* getelementptr inbounds ([1 x i8], [1 x i8]* @.str.1, i64 0, i64 0)) #3
  %46 = getelementptr inbounds [20 x i8], [20 x i8]* %7, i64 0, i64 0
  %47 = getelementptr inbounds [20 x i8], [20 x i8]* %5, i64 0, i64 0
  %48 = load i32, i32* %4, align 4
  %49 = add nsw i32 %48, 1
  %50 = sext i32 %49 to i64
  %51 = call i8* @strncat(i8* %46, i8* %47, i64 %50) #3
  %52 = getelementptr inbounds [20 x i8], [20 x i8]* %7, i64 0, i64 0
  %53 = getelementptr inbounds [4 x i8], [4 x i8]* %6, i64 0, i64 0
  %54 = call i8* @strcat(i8* %52, i8* %53) #3
  %55 = getelementptr inbounds [20 x i8], [20 x i8]* %7, i64 0, i64 0
  %56 = getelementptr inbounds [20 x i8], [20 x i8]* %5, i64 0, i64 0
  %57 = load i32, i32* %4, align 4
  %58 = sext i32 %57 to i64
  %59 = getelementptr inbounds i8, i8* %56, i64 %58
  %60 = getelementptr inbounds i8, i8* %59, i64 1
  %61 = call i8* @strcat(i8* %55, i8* %60) #3
  %62 = getelementptr inbounds [20 x i8], [20 x i8]* %7, i64 0, i64 0
  %63 = call i32 (i8*, ...) @printf(i8* getelementptr inbounds ([4 x i8], [4 x i8]* @.str.2, i64 0, i64 0), i8* %62)
  br label %12

64:                                               ; preds = %12
  ret i32 0
}

declare dso_local i32 @__isoc99_scanf(i8*, ...) #1

; Function Attrs: nounwind
declare dso_local i8* @strcpy(i8*, i8*) #2

; Function Attrs: nounwind
declare dso_local i8* @strncat(i8*, i8*, i64) #2

; Function Attrs: nounwind
declare dso_local i8* @strcat(i8*, i8*) #2

declare dso_local i32 @printf(i8*, ...) #1


!llvm.module.flags = !{!0}
!llvm.ident = !{!1}

!0 = !{i32 1, !"wchar_size", i32 4}
!1 = !{!"clang version 10.0.0-4ubuntu1 "}
